; Function Attrs: null_pointer_is_valid sspstrong uwtable
define noundef i32 @dissect_ber_identifier(ptr readnone captures(none) %0, ptr noundef %1, ptr noundef %2, i32 noundef %3, ptr noundef writeonly captures(address_is_null) %4, ptr noundef writeonly captures(address_is_null) %5, ptr noundef writeonly captures(address_is_null) %6) local_unnamed_addr #0 {
  %8 = tail call zeroext i8 @tvb_get_uint8(ptr noundef %2, i32 noundef %3)
  %9 = add i32 %3, 1
  %10 = lshr i8 %8, 6
  %11 = lshr i8 %8, 5
  %.lobit.i = and i8 %11, 1
  %12 = and i8 %8, 31
  %13 = zext nneg i8 %12 to i32
  %14 = icmp eq i8 %12, 31
  br i1 %14, label %.preheader.i, label %get_ber_identifier.exit

.preheader.i:                                     ; preds = %7, %17
  %.129.i = phi i32 [ %19, %17 ], [ %9, %7 ]
  %.1.i = phi i32 [ %23, %17 ], [ 0, %7 ]
  %15 = tail call i32 @tvb_reported_length_remaining(ptr noundef %2, i32 noundef %.129.i)
  %16 = icmp sgt i32 %15, 0
  br i1 %16, label %17, label %get_ber_identifier.exit

17:                                               ; preds = %.preheader.i
  %18 = tail call zeroext i8 @tvb_get_uint8(ptr noundef %2, i32 noundef %.129.i)
  %19 = add i32 %.129.i, 1
  %20 = shl i32 %.1.i, 7
  %21 = and i8 %18, 127
  %22 = zext nneg i8 %21 to i32
  %23 = or disjoint i32 %20, %22
  %.not.i = icmp sgt i8 %18, -1
  br i1 %.not.i, label %get_ber_identifier.exit, label %.preheader.i, !llvm.loop !6

get_ber_identifier.exit:                          ; preds = %.preheader.i, %17, %7
  %.028.i = phi i32 [ %9, %7 ], [ %19, %17 ], [ %.129.i, %.preheader.i ]
  %.0.i = phi i32 [ %13, %7 ], [ %23, %17 ], [ %.1.i, %.preheader.i ]
  store i8 %10, ptr @last_class, align 1
  store i8 %.lobit.i, ptr @last_pc, align 1
  store i32 %.0.i, ptr @last_tag, align 4
  %24 = load i8, ptr @show_internal_ber_fields, align 1, !range !8, !noundef !9
  %25 = trunc nuw i8 %24 to i1
  br i1 %25, label %26, label %52

26:                                               ; preds = %get_ber_identifier.exit
  %27 = load i32, ptr @hf_ber_id_class, align 4
  %28 = and i8 %8, -64
  %29 = zext i8 %28 to i32
  %30 = tail call ptr @proto_tree_add_uint(ptr noundef %1, i32 noundef %27, ptr noundef %2, i32 noundef %3, i32 noundef 1, i32 noundef %29)
  %31 = load i32, ptr @hf_ber_id_pc, align 4
  %32 = trunc i8 %11 to i1
  %33 = select i1 %32, i64 32, i64 0
  %34 = tail call ptr @proto_tree_add_boolean(ptr noundef %1, i32 noundef %31, ptr noundef %2, i32 noundef %3, i32 noundef 1, i64 noundef %33)
  %35 = icmp sgt i32 %.0.i, 31
  %36 = icmp ult i8 %8, 64
  br i1 %35, label %37, label %45

37:                                               ; preds = %26
  %38 = sub i32 %.028.i, %9
  br i1 %36, label %39, label %42

39:                                               ; preds = %37
  %40 = load i32, ptr @hf_ber_id_uni_tag_ext, align 4
  %41 = tail call ptr @proto_tree_add_uint(ptr noundef %1, i32 noundef %40, ptr noundef %2, i32 noundef %9, i32 noundef %38, i32 noundef %.0.i)
  br label %52

42:                                               ; preds = %37
  %43 = load i32, ptr @hf_ber_id_tag_ext, align 4
  %44 = tail call ptr @proto_tree_add_uint(ptr noundef %1, i32 noundef %43, ptr noundef %2, i32 noundef %9, i32 noundef %38, i32 noundef %.0.i)
  br label %52

45:                                               ; preds = %26
  br i1 %36, label %46, label %49

46:                                               ; preds = %45
  %47 = load i32, ptr @hf_ber_id_uni_tag, align 4
  %48 = tail call ptr @proto_tree_add_uint(ptr noundef %1, i32 noundef %47, ptr noundef %2, i32 noundef %3, i32 noundef 1, i32 noundef %.0.i)
  br label %52

49:                                               ; preds = %45
  %50 = load i32, ptr @hf_ber_id_tag, align 4
  %51 = tail call ptr @proto_tree_add_uint(ptr noundef %1, i32 noundef %50, ptr noundef %2, i32 noundef %3, i32 noundef 1, i32 noundef %.0.i)
  br label %52

52:                                               ; preds = %42, %39, %49, %46, %get_ber_identifier.exit
  %.not = icmp eq ptr %4, null
  br i1 %.not, label %54, label %53

53:                                               ; preds = %52
  store i8 %10, ptr %4, align 1
  br label %54

54:                                               ; preds = %53, %52
  %.not34 = icmp eq ptr %5, null
  br i1 %.not34, label %56, label %55

55:                                               ; preds = %54
  store i8 %.lobit.i, ptr %5, align 1
  br label %56

56:                                               ; preds = %55, %54
  %.not35 = icmp eq ptr %6, null
  br i1 %.not35, label %58, label %57

57:                                               ; preds = %56
  store i32 %.0.i, ptr %6, align 4
  br label %58

58:                                               ; preds = %57, %56
  ret i32 %.028.i
}